target datalayout = "e-m:e-p270:32:32-p271:32:32-p272:64:64-i64:64-i128:128-f80:128-n8:16:32:64-S128"
target triple = "x86_64-pc-linux-gnu"

%"class.OpenSubdiv::v3_6_0::Vtr::internal::Level" = type { i32, i32, i32, i32, i32, i32, %"class.std::vector", %"class.std::vector", %"class.std::vector", %"class.std::vector.0", %"class.std::vector", %"class.std::vector", %"class.std::vector", %"class.std::vector.5", %"class.std::vector.10", %"class.std::vector.15", %"class.std::vector", %"class.std::vector", %"class.std::vector.5", %"class.std::vector", %"class.std::vector", %"class.std::vector.5", %"class.std::vector.10", %"class.std::vector.20", %"class.std::vector.25" }
%"class.std::vector.0" = type { %"struct.std::_Vector_base.1" }
%"struct.std::_Vector_base.1" = type { %"struct.std::_Vector_base<OpenSubdiv::v3_6_0::Vtr::internal::Level::FTag, std::allocator<OpenSubdiv::v3_6_0::Vtr::internal::Level::FTag>>::_Vector_impl" }
%"struct.std::_Vector_base<OpenSubdiv::v3_6_0::Vtr::internal::Level::FTag, std::allocator<OpenSubdiv::v3_6_0::Vtr::internal::Level::FTag>>::_Vector_impl" = type { %"struct.std::_Vector_base<OpenSubdiv::v3_6_0::Vtr::internal::Level::FTag, std::allocator<OpenSubdiv::v3_6_0::Vtr::internal::Level::FTag>>::_Vector_impl_data" }
%"struct.std::_Vector_base<OpenSubdiv::v3_6_0::Vtr::internal::Level::FTag, std::allocator<OpenSubdiv::v3_6_0::Vtr::internal::Level::FTag>>::_Vector_impl_data" = type { ptr, ptr, ptr }
%"class.std::vector.15" = type { %"struct.std::_Vector_base.16" }
%"struct.std::_Vector_base.16" = type { %"struct.std::_Vector_base<OpenSubdiv::v3_6_0::Vtr::internal::Level::ETag, std::allocator<OpenSubdiv::v3_6_0::Vtr::internal::Level::ETag>>::_Vector_impl" }
%"struct.std::_Vector_base<OpenSubdiv::v3_6_0::Vtr::internal::Level::ETag, std::allocator<OpenSubdiv::v3_6_0::Vtr::internal::Level::ETag>>::_Vector_impl" = type { %"struct.std::_Vector_base<OpenSubdiv::v3_6_0::Vtr::internal::Level::ETag, std::allocator<OpenSubdiv::v3_6_0::Vtr::internal::Level::ETag>>::_Vector_impl_data" }
%"struct.std::_Vector_base<OpenSubdiv::v3_6_0::Vtr::internal::Level::ETag, std::allocator<OpenSubdiv::v3_6_0::Vtr::internal::Level::ETag>>::_Vector_impl_data" = type { ptr, ptr, ptr }
%"class.std::vector" = type { %"struct.std::_Vector_base" }
%"struct.std::_Vector_base" = type { %"struct.std::_Vector_base<int, std::allocator<int>>::_Vector_impl" }
%"struct.std::_Vector_base<int, std::allocator<int>>::_Vector_impl" = type { %"struct.std::_Vector_base<int, std::allocator<int>>::_Vector_impl_data" }
%"struct.std::_Vector_base<int, std::allocator<int>>::_Vector_impl_data" = type { ptr, ptr, ptr }
%"class.std::vector.5" = type { %"struct.std::_Vector_base.6" }
%"struct.std::_Vector_base.6" = type { %"struct.std::_Vector_base<unsigned short, std::allocator<unsigned short>>::_Vector_impl" }
%"struct.std::_Vector_base<unsigned short, std::allocator<unsigned short>>::_Vector_impl" = type { %"struct.std::_Vector_base<unsigned short, std::allocator<unsigned short>>::_Vector_impl_data" }
%"struct.std::_Vector_base<unsigned short, std::allocator<unsigned short>>::_Vector_impl_data" = type { ptr, ptr, ptr }
%"class.std::vector.10" = type { %"struct.std::_Vector_base.11" }
%"struct.std::_Vector_base.11" = type { %"struct.std::_Vector_base<float, std::allocator<float>>::_Vector_impl" }
%"struct.std::_Vector_base<float, std::allocator<float>>::_Vector_impl" = type { %"struct.std::_Vector_base<float, std::allocator<float>>::_Vector_impl_data" }
%"struct.std::_Vector_base<float, std::allocator<float>>::_Vector_impl_data" = type { ptr, ptr, ptr }
%"class.std::vector.20" = type { %"struct.std::_Vector_base.21" }
%"struct.std::_Vector_base.21" = type { %"struct.std::_Vector_base<OpenSubdiv::v3_6_0::Vtr::internal::Level::VTag, std::allocator<OpenSubdiv::v3_6_0::Vtr::internal::Level::VTag>>::_Vector_impl" }
%"struct.std::_Vector_base<OpenSubdiv::v3_6_0::Vtr::internal::Level::VTag, std::allocator<OpenSubdiv::v3_6_0::Vtr::internal::Level::VTag>>::_Vector_impl" = type { %"struct.std::_Vector_base<OpenSubdiv::v3_6_0::Vtr::internal::Level::VTag, std::allocator<OpenSubdiv::v3_6_0::Vtr::internal::Level::VTag>>::_Vector_impl_data" }
%"struct.std::_Vector_base<OpenSubdiv::v3_6_0::Vtr::internal::Level::VTag, std::allocator<OpenSubdiv::v3_6_0::Vtr::internal::Level::VTag>>::_Vector_impl_data" = type { ptr, ptr, ptr }
%"class.std::vector.25" = type { %"struct.std::_Vector_base.26" }
%"struct.std::_Vector_base.26" = type { %"struct.std::_Vector_base<OpenSubdiv::v3_6_0::Vtr::internal::FVarLevel *, std::allocator<OpenSubdiv::v3_6_0::Vtr::internal::FVarLevel *>>::_Vector_impl" }
%"struct.std::_Vector_base<OpenSubdiv::v3_6_0::Vtr::internal::FVarLevel *, std::allocator<OpenSubdiv::v3_6_0::Vtr::internal::FVarLevel *>>::_Vector_impl" = type { %"struct.std::_Vector_base<OpenSubdiv::v3_6_0::Vtr::internal::FVarLevel *, std::allocator<OpenSubdiv::v3_6_0::Vtr::internal::FVarLevel *>>::_Vector_impl_data" }
%"struct.std::_Vector_base<OpenSubdiv::v3_6_0::Vtr::internal::FVarLevel *, std::allocator<OpenSubdiv::v3_6_0::Vtr::internal::FVarLevel *>>::_Vector_impl_data" = type { ptr, ptr, ptr }
%"class.OpenSubdiv::v3_6_0::Vtr::ConstArray" = type <{ ptr, i32, [4 x i8] }>

; Function Attrs: mustprogress nounwind uwtable
define linkonce_odr void @_ZN10OpenSubdiv6v3_6_03Vtr10ConstArrayIiEC2EPKii(ptr noundef nonnull align 8 dereferenceable(12) %0, ptr noundef %1, i32 noundef %2) unnamed_addr #0 comdat align 2 {
  %4 = alloca ptr, align 8
  %5 = alloca ptr, align 8
  %6 = alloca i32, align 4
  store ptr %0, ptr %4, align 8
  store ptr %1, ptr %5, align 8
  store i32 %2, ptr %6, align 4
  %7 = load ptr, ptr %4, align 8
  %8 = getelementptr inbounds nuw %"class.OpenSubdiv::v3_6_0::Vtr::ConstArray", ptr %7, i32 0, i32 0
  %9 = load ptr, ptr %5, align 8
  store ptr %9, ptr %8, align 8
  %10 = getelementptr inbounds nuw %"class.OpenSubdiv::v3_6_0::Vtr::ConstArray", ptr %7, i32 0, i32 1
  %11 = load i32, ptr %6, align 4
  store i32 %11, ptr %10, align 8
  ret void
}

; Function Attrs: mustprogress nounwind uwtable
define linkonce_odr noundef nonnull align 4 dereferenceable(4) ptr @_ZNKSt6vectorIiSaIiEEixEm(ptr noundef nonnull align 8 dereferenceable(24) %0, i64 noundef %1) #0 comdat align 2 {
  %3 = alloca ptr, align 8
  %4 = alloca i64, align 8
  store ptr %0, ptr %3, align 8
  store i64 %1, ptr %4, align 8
  %5 = load ptr, ptr %3, align 8
  %6 = getelementptr inbounds nuw %"struct.std::_Vector_base", ptr %5, i32 0, i32 0
  %7 = getelementptr inbounds nuw %"struct.std::_Vector_base<int, std::allocator<int>>::_Vector_impl_data", ptr %6, i32 0, i32 0
  %8 = load ptr, ptr %7, align 8
  %9 = load i64, ptr %4, align 8
  %10 = getelementptr inbounds i32, ptr %8, i64 %9
  ret ptr %10
}

; Function Attrs: mustprogress nounwind uwtable
define internal noundef i32 @_ZN10OpenSubdiv6v3_6_03Vtr8internal12_GLOBAL__N_110otherOfTwoINS1_10ConstArrayIiEEiEET0_RKT_RKS7_(ptr noundef nonnull align 8 dereferenceable(12) %0, ptr noundef nonnull align 4 dereferenceable(4) %1) #0 {
  %3 = alloca ptr, align 8
  %4 = alloca ptr, align 8
  store ptr %0, ptr %3, align 8
  store ptr %1, ptr %4, align 8
  %5 = load ptr, ptr %3, align 8
  %6 = load ptr, ptr %4, align 8
  %7 = load i32, ptr %6, align 4
  %8 = load ptr, ptr %3, align 8
  %9 = call noundef nonnull align 4 dereferenceable(4) ptr @_ZNK10OpenSubdiv6v3_6_03Vtr10ConstArrayIiEixEi(ptr noundef nonnull align 8 dereferenceable(12) %8, i32 noundef 0)
  %10 = load i32, ptr %9, align 4
  %11 = icmp eq i32 %7, %10
  %12 = zext i1 %11 to i32
  %13 = call noundef nonnull align 4 dereferenceable(4) ptr @_ZNK10OpenSubdiv6v3_6_03Vtr10ConstArrayIiEixEi(ptr noundef nonnull align 8 dereferenceable(12) %5, i32 noundef %12)
  %14 = load i32, ptr %13, align 4
  ret i32 %14
}

; Function Attrs: mustprogress uwtable
define linkonce_odr { ptr, i32 } @_ZNK10OpenSubdiv6v3_6_03Vtr8internal5Level15getEdgeVerticesEi(ptr noundef nonnull align 8 dereferenceable(480) %0, i32 noundef %1) #3 comdat align 2 {
  %3 = alloca %"class.OpenSubdiv::v3_6_0::Vtr::ConstArray", align 8
  %4 = alloca ptr, align 8
  %5 = alloca i32, align 4
  store ptr %0, ptr %4, align 8
  store i32 %1, ptr %5, align 4
  %6 = load ptr, ptr %4, align 8
  %7 = getelementptr inbounds nuw %"class.OpenSubdiv::v3_6_0::Vtr::internal::Level", ptr %6, i32 0, i32 10
  %8 = load i32, ptr %5, align 4
  %9 = mul nsw i32 %8, 2
  %10 = sext i32 %9 to i64
  %11 = call noundef nonnull align 4 dereferenceable(4) ptr @_ZNKSt6vectorIiSaIiEEixEm(ptr noundef nonnull align 8 dereferenceable(24) %7, i64 noundef %10) #12
  call void @_ZN10OpenSubdiv6v3_6_03Vtr10ConstArrayIiEC2EPKii(ptr noundef nonnull align 8 dereferenceable(12) %3, ptr noundef %11, i32 noundef 2)
  %12 = load { ptr, i32 }, ptr %3, align 8
  ret { ptr, i32 } %12
}

; Function Attrs: mustprogress uwtable
define linkonce_odr { ptr, i32 } @_ZNK10OpenSubdiv6v3_6_03Vtr8internal5Level14getVertexEdgesEi(ptr noundef nonnull align 8 dereferenceable(480) %0, i32 noundef %1) #3 comdat align 2 {
  %3 = alloca %"class.OpenSubdiv::v3_6_0::Vtr::ConstArray", align 8
  %4 = alloca ptr, align 8
  %5 = alloca i32, align 4
  store ptr %0, ptr %4, align 8
  store i32 %1, ptr %5, align 4
  %6 = load ptr, ptr %4, align 8
  %7 = getelementptr inbounds nuw %"class.OpenSubdiv::v3_6_0::Vtr::internal::Level", ptr %6, i32 0, i32 20
  %8 = call noundef nonnull align 4 dereferenceable(4) ptr @_ZNKSt6vectorIiSaIiEEixEm(ptr noundef nonnull align 8 dereferenceable(24) %7, i64 noundef 0) #12
  %9 = getelementptr inbounds nuw %"class.OpenSubdiv::v3_6_0::Vtr::internal::Level", ptr %6, i32 0, i32 19
  %10 = load i32, ptr %5, align 4
  %11 = mul nsw i32 %10, 2
  %12 = add nsw i32 %11, 1
  %13 = sext i32 %12 to i64
  %14 = call noundef nonnull align 4 dereferenceable(4) ptr @_ZNKSt6vectorIiSaIiEEixEm(ptr noundef nonnull align 8 dereferenceable(24) %9, i64 noundef %13) #12
  %15 = load i32, ptr %14, align 4
  %16 = sext i32 %15 to i64
  %17 = getelementptr inbounds i32, ptr %8, i64 %16
  %18 = getelementptr inbounds nuw %"class.OpenSubdiv::v3_6_0::Vtr::internal::Level", ptr %6, i32 0, i32 19
  %19 = load i32, ptr %5, align 4
  %20 = mul nsw i32 %19, 2
  %21 = sext i32 %20 to i64
  %22 = call noundef nonnull align 4 dereferenceable(4) ptr @_ZNKSt6vectorIiSaIiEEixEm(ptr noundef nonnull align 8 dereferenceable(24) %18, i64 noundef %21) #12
  %23 = load i32, ptr %22, align 4
  call void @_ZN10OpenSubdiv6v3_6_03Vtr10ConstArrayIiEC2EPKii(ptr noundef nonnull align 8 dereferenceable(12) %3, ptr noundef %17, i32 noundef %23)
  %24 = load { ptr, i32 }, ptr %3, align 8
  ret { ptr, i32 } %24
}

; Function Attrs: mustprogress nounwind uwtable
define linkonce_odr noundef nonnull align 4 dereferenceable(4) ptr @_ZNK10OpenSubdiv6v3_6_03Vtr10ConstArrayIiEixEi(ptr noundef nonnull align 8 dereferenceable(12) %0, i32 noundef %1) #0 comdat align 2 {
  %3 = alloca ptr, align 8
  %4 = alloca i32, align 4
  store ptr %0, ptr %3, align 8
  store i32 %1, ptr %4, align 4
  %5 = load ptr, ptr %3, align 8
  %6 = getelementptr inbounds nuw %"class.OpenSubdiv::v3_6_0::Vtr::ConstArray", ptr %5, i32 0, i32 0
  %7 = load ptr, ptr %6, align 8
  %8 = load i32, ptr %4, align 4
  %9 = sext i32 %8 to i64
  %10 = getelementptr inbounds i32, ptr %7, i64 %9
  ret ptr %10
}

; Function Attrs: mustprogress uwtable
define linkonce_odr { ptr, i32 } @_ZNK10OpenSubdiv6v3_6_03Vtr8internal5Level15getFaceVerticesEi(ptr noundef nonnull align 8 dereferenceable(480) %0, i32 noundef %1) #3 comdat align 2 {
  %3 = alloca %"class.OpenSubdiv::v3_6_0::Vtr::ConstArray", align 8
  %4 = alloca ptr, align 8
  %5 = alloca i32, align 4
  store ptr %0, ptr %4, align 8
  store i32 %1, ptr %5, align 4
  %6 = load ptr, ptr %4, align 8
  %7 = getelementptr inbounds nuw %"class.OpenSubdiv::v3_6_0::Vtr::internal::Level", ptr %6, i32 0, i32 7
  %8 = getelementptr inbounds nuw %"class.OpenSubdiv::v3_6_0::Vtr::internal::Level", ptr %6, i32 0, i32 6
  %9 = load i32, ptr %5, align 4
  %10 = mul nsw i32 %9, 2
  %11 = add nsw i32 %10, 1
  %12 = sext i32 %11 to i64
  %13 = call noundef nonnull align 4 dereferenceable(4) ptr @_ZNKSt6vectorIiSaIiEEixEm(ptr noundef nonnull align 8 dereferenceable(24) %8, i64 noundef %12) #12
  %14 = load i32, ptr %13, align 4
  %15 = sext i32 %14 to i64
  %16 = call noundef nonnull align 4 dereferenceable(4) ptr @_ZNKSt6vectorIiSaIiEEixEm(ptr noundef nonnull align 8 dereferenceable(24) %7, i64 noundef %15) #12
  %17 = getelementptr inbounds nuw %"class.OpenSubdiv::v3_6_0::Vtr::internal::Level", ptr %6, i32 0, i32 6
  %18 = load i32, ptr %5, align 4
  %19 = mul nsw i32 %18, 2
  %20 = sext i32 %19 to i64
  %21 = call noundef nonnull align 4 dereferenceable(4) ptr @_ZNKSt6vectorIiSaIiEEixEm(ptr noundef nonnull align 8 dereferenceable(24) %17, i64 noundef %20) #12
  %22 = load i32, ptr %21, align 4
  call void @_ZN10OpenSubdiv6v3_6_03Vtr10ConstArrayIiEC2EPKii(ptr noundef nonnull align 8 dereferenceable(12) %3, ptr noundef %16, i32 noundef %22)
  %23 = load { ptr, i32 }, ptr %3, align 8
  ret { ptr, i32 } %23
}

; Function Attrs: mustprogress uwtable
define noundef i32 @_ZNK10OpenSubdiv6v3_6_03Vtr8internal5Level39gatherTriRegularCornerVertexPatchPointsEiPii(ptr noundef nonnull align 8 dereferenceable(480) %0, i32 noundef %1, ptr noundef %2, i32 noundef %3) #3 align 2 {
  %5 = alloca ptr, align 8
  %6 = alloca i32, align 4
  %7 = alloca ptr, align 8
  %8 = alloca i32, align 4
  %9 = alloca %"class.OpenSubdiv::v3_6_0::Vtr::ConstArray", align 8
  %10 = alloca { ptr, i32 }, align 8
  %11 = alloca i32, align 4
  %12 = alloca i32, align 4
  %13 = alloca i32, align 4
  %14 = alloca %"class.OpenSubdiv::v3_6_0::Vtr::ConstArray", align 8
  %15 = alloca { ptr, i32 }, align 8
  %16 = alloca %"class.OpenSubdiv::v3_6_0::Vtr::ConstArray", align 8
  %17 = alloca { ptr, i32 }, align 8
  %18 = alloca %"class.OpenSubdiv::v3_6_0::Vtr::ConstArray", align 8
  %19 = alloca { ptr, i32 }, align 8
  %20 = alloca %"class.OpenSubdiv::v3_6_0::Vtr::ConstArray", align 8
  %21 = alloca { ptr, i32 }, align 8
  %22 = alloca %"class.OpenSubdiv::v3_6_0::Vtr::ConstArray", align 8
  %23 = alloca { ptr, i32 }, align 8
  store ptr %0, ptr %5, align 8
  store i32 %1, ptr %6, align 4
  store ptr %2, ptr %7, align 8
  store i32 %3, ptr %8, align 4
  %24 = load ptr, ptr %5, align 8
  %25 = load i32, ptr %6, align 4
  %26 = call { ptr, i32 } @_ZNK10OpenSubdiv6v3_6_03Vtr8internal5Level15getFaceVerticesEi(ptr noundef nonnull align 8 dereferenceable(480) %24, i32 noundef %25)
  store { ptr, i32 } %26, ptr %10, align 8
  call void @llvm.memcpy.p0.p0.i64(ptr align 8 %9, ptr align 8 %10, i64 12, i1 false)
  %27 = load i32, ptr %8, align 4
  %28 = call noundef nonnull align 4 dereferenceable(4) ptr @_ZNK10OpenSubdiv6v3_6_03Vtr10ConstArrayIiEixEi(ptr noundef nonnull align 8 dereferenceable(12) %9, i32 noundef %27)
  %29 = load i32, ptr %28, align 4
  store i32 %29, ptr %11, align 4
  %30 = load i32, ptr %8, align 4
  %31 = add nsw i32 %30, 1
  %32 = srem i32 %31, 3
  %33 = call noundef nonnull align 4 dereferenceable(4) ptr @_ZNK10OpenSubdiv6v3_6_03Vtr10ConstArrayIiEixEi(ptr noundef nonnull align 8 dereferenceable(12) %9, i32 noundef %32)
  %34 = load i32, ptr %33, align 4
  store i32 %34, ptr %12, align 4
  %35 = load i32, ptr %8, align 4
  %36 = add nsw i32 %35, 2
  %37 = srem i32 %36, 3
  %38 = call noundef nonnull align 4 dereferenceable(4) ptr @_ZNK10OpenSubdiv6v3_6_03Vtr10ConstArrayIiEixEi(ptr noundef nonnull align 8 dereferenceable(12) %9, i32 noundef %37)
  %39 = load i32, ptr %38, align 4
  store i32 %39, ptr %13, align 4
  %40 = load i32, ptr %12, align 4
  %41 = call { ptr, i32 } @_ZNK10OpenSubdiv6v3_6_03Vtr8internal5Level14getVertexEdgesEi(ptr noundef nonnull align 8 dereferenceable(480) %24, i32 noundef %40)
  store { ptr, i32 } %41, ptr %15, align 8
  call void @llvm.memcpy.p0.p0.i64(ptr align 8 %14, ptr align 8 %15, i64 12, i1 false)
  %42 = load i32, ptr %13, align 4
  %43 = call { ptr, i32 } @_ZNK10OpenSubdiv6v3_6_03Vtr8internal5Level14getVertexEdgesEi(ptr noundef nonnull align 8 dereferenceable(480) %24, i32 noundef %42)
  store { ptr, i32 } %43, ptr %17, align 8
  call void @llvm.memcpy.p0.p0.i64(ptr align 8 %16, ptr align 8 %17, i64 12, i1 false)
  %44 = load i32, ptr %11, align 4
  %45 = load ptr, ptr %7, align 8
  %46 = getelementptr inbounds i32, ptr %45, i64 0
  store i32 %44, ptr %46, align 4
  %47 = load i32, ptr %12, align 4
  %48 = load ptr, ptr %7, align 8
  %49 = getelementptr inbounds i32, ptr %48, i64 1
  store i32 %47, ptr %49, align 4
  %50 = load i32, ptr %13, align 4
  %51 = load ptr, ptr %7, align 8
  %52 = getelementptr inbounds i32, ptr %51, i64 2
  store i32 %50, ptr %52, align 4
  %53 = call noundef nonnull align 4 dereferenceable(4) ptr @_ZNK10OpenSubdiv6v3_6_03Vtr10ConstArrayIiEixEi(ptr noundef nonnull align 8 dereferenceable(12) %14, i32 noundef 0)
  %54 = load i32, ptr %53, align 4
  %55 = call { ptr, i32 } @_ZNK10OpenSubdiv6v3_6_03Vtr8internal5Level15getEdgeVerticesEi(ptr noundef nonnull align 8 dereferenceable(480) %24, i32 noundef %54)
  store { ptr, i32 } %55, ptr %19, align 8
  call void @llvm.memcpy.p0.p0.i64(ptr align 8 %18, ptr align 8 %19, i64 12, i1 false)
  %56 = call noundef i32 @_ZN10OpenSubdiv6v3_6_03Vtr8internal12_GLOBAL__N_110otherOfTwoINS1_10ConstArrayIiEEiEET0_RKT_RKS7_(ptr noundef nonnull align 8 dereferenceable(12) %18, ptr noundef nonnull align 4 dereferenceable(4) %12)
  %57 = load ptr, ptr %7, align 8
  %58 = getelementptr inbounds i32, ptr %57, i64 3
  store i32 %56, ptr %58, align 4
  %59 = call noundef nonnull align 4 dereferenceable(4) ptr @_ZNK10OpenSubdiv6v3_6_03Vtr10ConstArrayIiEixEi(ptr noundef nonnull align 8 dereferenceable(12) %14, i32 noundef 1)
  %60 = load i32, ptr %59, align 4
  %61 = call { ptr, i32 } @_ZNK10OpenSubdiv6v3_6_03Vtr8internal5Level15getEdgeVerticesEi(ptr noundef nonnull align 8 dereferenceable(480) %24, i32 noundef %60)
  store { ptr, i32 } %61, ptr %21, align 8
  call void @llvm.memcpy.p0.p0.i64(ptr align 8 %20, ptr align 8 %21, i64 12, i1 false)
  %62 = call noundef i32 @_ZN10OpenSubdiv6v3_6_03Vtr8internal12_GLOBAL__N_110otherOfTwoINS1_10ConstArrayIiEEiEET0_RKT_RKS7_(ptr noundef nonnull align 8 dereferenceable(12) %20, ptr noundef nonnull align 4 dereferenceable(4) %12)
  %63 = load ptr, ptr %7, align 8
  %64 = getelementptr inbounds i32, ptr %63, i64 4
  store i32 %62, ptr %64, align 4
  %65 = call noundef nonnull align 4 dereferenceable(4) ptr @_ZNK10OpenSubdiv6v3_6_03Vtr10ConstArrayIiEixEi(ptr noundef nonnull align 8 dereferenceable(12) %16, i32 noundef 3)
  %66 = load i32, ptr %65, align 4
  %67 = call { ptr, i32 } @_ZNK10OpenSubdiv6v3_6_03Vtr8internal5Level15getEdgeVerticesEi(ptr noundef nonnull align 8 dereferenceable(480) %24, i32 noundef %66)
  store { ptr, i32 } %67, ptr %23, align 8
  call void @llvm.memcpy.p0.p0.i64(ptr align 8 %22, ptr align 8 %23, i64 12, i1 false)
  %68 = call noundef i32 @_ZN10OpenSubdiv6v3_6_03Vtr8internal12_GLOBAL__N_110otherOfTwoINS1_10ConstArrayIiEEiEET0_RKT_RKS7_(ptr noundef nonnull align 8 dereferenceable(12) %22, ptr noundef nonnull align 4 dereferenceable(4) %13)
  %69 = load ptr, ptr %7, align 8
  %70 = getelementptr inbounds i32, ptr %69, i64 5
  store i32 %68, ptr %70, align 4
  ret i32 6
}