; Function Attrs: mustprogress nofree norecurse nosync nounwind willreturn memory(read, argmem: readwrite, inaccessiblemem: none) uwtable
define noundef i32 @_ZNK10OpenSubdiv6v3_6_03Vtr8internal5Level39gatherTriRegularCornerVertexPatchPointsEiPii(ptr noundef nonnull readonly align 8 captures(none) dereferenceable(480) %0, i32 noundef %1, ptr noundef writeonly captures(none) initializes((0, 24)) %2, i32 noundef %3) local_unnamed_addr #16 align 2 {
  %5 = getelementptr inbounds nuw i8, ptr %0, i64 48
  %6 = getelementptr inbounds nuw i8, ptr %0, i64 24
  %7 = shl nsw i32 %1, 1
  %8 = or disjoint i32 %7, 1
  %9 = sext i32 %8 to i64
  %10 = load ptr, ptr %6, align 8
  %11 = getelementptr inbounds i32, ptr %10, i64 %9
  %12 = load i32, ptr %11, align 4
  %13 = sext i32 %12 to i64
  %14 = load ptr, ptr %5, align 8
  %15 = getelementptr inbounds i32, ptr %14, i64 %13
  %16 = sext i32 %3 to i64
  %17 = getelementptr inbounds i32, ptr %15, i64 %16
  %18 = load i32, ptr %17, align 4
  %19 = add nsw i32 %3, 1
  %20 = srem i32 %19, 3
  %21 = sext i32 %20 to i64
  %22 = getelementptr inbounds i32, ptr %15, i64 %21
  %23 = load i32, ptr %22, align 4
  %24 = add nsw i32 %3, 2
  %25 = srem i32 %24, 3
  %26 = sext i32 %25 to i64
  %27 = getelementptr inbounds i32, ptr %15, i64 %26
  %28 = load i32, ptr %27, align 4
  %29 = getelementptr inbounds nuw i8, ptr %0, i64 360
  %30 = load ptr, ptr %29, align 8
  %31 = getelementptr inbounds nuw i8, ptr %0, i64 336
  %32 = shl nsw i32 %23, 1
  %33 = or disjoint i32 %32, 1
  %34 = sext i32 %33 to i64
  %35 = load ptr, ptr %31, align 8
  %36 = getelementptr inbounds i32, ptr %35, i64 %34
  %37 = load i32, ptr %36, align 4
  %38 = sext i32 %37 to i64
  %39 = getelementptr inbounds i32, ptr %30, i64 %38
  %40 = shl nsw i32 %28, 1
  %41 = or disjoint i32 %40, 1
  %42 = sext i32 %41 to i64
  %43 = getelementptr inbounds i32, ptr %35, i64 %42
  %44 = load i32, ptr %43, align 4
  %45 = sext i32 %44 to i64
  %46 = getelementptr inbounds i32, ptr %30, i64 %45
  store i32 %18, ptr %2, align 4
  %47 = getelementptr inbounds nuw i8, ptr %2, i64 4
  store i32 %23, ptr %47, align 4
  %48 = getelementptr inbounds nuw i8, ptr %2, i64 8
  store i32 %28, ptr %48, align 4
  %49 = load i32, ptr %39, align 4
  %50 = getelementptr inbounds nuw i8, ptr %0, i64 120
  %51 = shl nsw i32 %49, 1
  %52 = sext i32 %51 to i64
  %53 = load ptr, ptr %50, align 8
  %54 = getelementptr inbounds i32, ptr %53, i64 %52
  %55 = load i32, ptr %54, align 4
  %56 = icmp eq i32 %23, %55
  %57 = zext i1 %56 to i64
  %58 = getelementptr inbounds nuw i32, ptr %54, i64 %57
  %59 = load i32, ptr %58, align 4
  %60 = getelementptr inbounds nuw i8, ptr %2, i64 12
  store i32 %59, ptr %60, align 4
  %61 = getelementptr inbounds nuw i8, ptr %39, i64 4
  %62 = load i32, ptr %61, align 4
  %63 = shl nsw i32 %62, 1
  %64 = sext i32 %63 to i64
  %65 = load ptr, ptr %50, align 8
  %66 = getelementptr inbounds i32, ptr %65, i64 %64
  %67 = load i32, ptr %66, align 4
  %68 = icmp eq i32 %23, %67
  %69 = zext i1 %68 to i64
  %70 = getelementptr inbounds nuw i32, ptr %66, i64 %69
  %71 = load i32, ptr %70, align 4
  %72 = getelementptr inbounds nuw i8, ptr %2, i64 16
  store i32 %71, ptr %72, align 4
  %73 = getelementptr inbounds nuw i8, ptr %46, i64 12
  %74 = load i32, ptr %73, align 4
  %75 = shl nsw i32 %74, 1
  %76 = sext i32 %75 to i64
  %77 = load ptr, ptr %50, align 8
  %78 = getelementptr inbounds i32, ptr %77, i64 %76
  %79 = load i32, ptr %78, align 4
  %80 = icmp eq i32 %28, %79
  %81 = zext i1 %80 to i64
  %82 = getelementptr inbounds nuw i32, ptr %78, i64 %81
  %83 = load i32, ptr %82, align 4
  %84 = getelementptr inbounds nuw i8, ptr %2, i64 20
  store i32 %83, ptr %84, align 4
  ret i32 6
}